Compilation output:

Program output:
Hello!!
Hello, World!

objdump test.asm
Compiled and ran test.c -> test.exe
Function: __mingw_invalidParameterHandler
----------------------------------------
C Code                                  Assembly Code                                               Description
------------------------------------------------------------------------------------------------------------------------
                                        140001000: 55                   	push   rbp                                                         


Function: pre_c_init
----------------------------------------
C Code                                  Assembly Code                                               Description
------------------------------------------------------------------------------------------------------------------------
                                        140001017: 55                   	push   rbp                                                         


Function: pre_cpp_init
----------------------------------------
C Code                                  Assembly Code                                               Description
------------------------------------------------------------------------------------------------------------------------
                                        14000109a: 55                   	push   rbp                                                         


Function: WinMainCRTStartup
----------------------------------------
C Code                                  Assembly Code                                               Description
------------------------------------------------------------------------------------------------------------------------
                                        1400010f6: 55                   	push   rbp                                                         


Function: mainCRTStartup
----------------------------------------
C Code                                  Assembly Code                                               Description
------------------------------------------------------------------------------------------------------------------------
                                        140001125: 55                   	push   rbp                                                         


Function: __tmainCRTStartup
----------------------------------------
C Code                                  Assembly Code                                               Description
------------------------------------------------------------------------------------------------------------------------
                                        140001154: 55                   	push   rbp                                                         


Function: check_managed_app
----------------------------------------
C Code                                  Assembly Code                                               Description
------------------------------------------------------------------------------------------------------------------------
                                        140001378: 55                   	push   rbp                                                         


Function: duplicate_ppstrings
----------------------------------------
C Code                                  Assembly Code                                               Description
------------------------------------------------------------------------------------------------------------------------
                                        14000147c: 55                   	push   rbp                                                         


Function: atexit
----------------------------------------
C Code                                  Assembly Code                                               Description
------------------------------------------------------------------------------------------------------------------------
                                        140001583: 55                   	push   rbp                                                         


Function: __gcc_register_frame
----------------------------------------
C Code                                  Assembly Code                                               Description
------------------------------------------------------------------------------------------------------------------------
                                        1400015e0: 55                   	push   rbp                                                         


Function: __gcc_deregister_frame
----------------------------------------
C Code                                  Assembly Code                                               Description
------------------------------------------------------------------------------------------------------------------------
                                        140001690: 55                   	push   rbp                                                         


Function: test
----------------------------------------
C Code                                  Assembly Code                                               Description
------------------------------------------------------------------------------------------------------------------------
void test(void)                         1400016d0: 55                   	push   rbp                                                         
{                                       1400016d1: 48 89 e5             	mov    rbp,rsp                                                     
	printf("Hello, World!\n");             1400016d4: 48 83 ec 20          	sub    rsp,0x20                                                    
}                                       1400016d8: 48 8d 05 71 39 00 00 	lea    rax,[rip+0x3971]        # 140005050 <.rdata>                                        


Function: test2
----------------------------------------
C Code                                  Assembly Code                                               Description
------------------------------------------------------------------------------------------------------------------------
int test2(int n, int m)                 1400016ee: 55                   	push   rbp                                                         
{                                       1400016ef: 48 89 e5             	mov    rbp,rsp                                                     
    return n + m;                       1400016f2: 89 4d 10             	mov    DWORD PTR [rbp+0x10],ecx                                        
}                                       1400016f5: 89 55 18             	mov    DWORD PTR [rbp+0x18],edx                                        


Function: test3
----------------------------------------
C Code                                  Assembly Code                                               Description
------------------------------------------------------------------------------------------------------------------------
bool test3(void)                        140001702: 55                   	push   rbp                                                         
{                                       140001703: 48 89 e5             	mov    rbp,rsp                                                     
    return true;                        140001706: b8 01 00 00 00       	mov    eax,0x1                                                     
}                                       14000170b: 5d                   	pop    rbp                                                         


Function: main
----------------------------------------
C Code                                  Assembly Code                                               Description
------------------------------------------------------------------------------------------------------------------------
int main(void)                          14000170d: 55                   	push   rbp                                                         
{                                       14000170e: 48 89 e5             	mov    rbp,rsp                                                     
    const char* test_hello = "Hello!!\n";140001711: 48 83 ec 30          	sub    rsp,0x30                                                    
    printf("%s", test_hello);           140001715: e8 fd 00 00 00       	call   140001817 <__main>                                          
    test();                             14000171a: 48 8d 05 3d 39 00 00 	lea    rax,[rip+0x393d]        # 14000505e <.rdata+0xe>                                        
    test2(1, 2);                        140001721: 48 89 45 f8          	mov    QWORD PTR [rbp-0x8],rax                                        
    test3();                            140001725: 48 8b 45 f8          	mov    rax,QWORD PTR [rbp-0x8]                                        
    return 0;                           140001729: 48 89 c2             	mov    rdx,rax                                                     
}                                       14000172c: 48 8d 05 34 39 00 00 	lea    rax,[rip+0x3934]        # 140005067 <.rdata+0x17>                                        


Function: __do_global_dtors
----------------------------------------
C Code                                  Assembly Code                                               Description
------------------------------------------------------------------------------------------------------------------------
                                        140001760: 55                   	push   rbp                                                         


Function: __do_global_ctors
----------------------------------------
C Code                                  Assembly Code                                               Description
------------------------------------------------------------------------------------------------------------------------
                                        14000179f: 55                   	push   rbp                                                         


Function: __main
----------------------------------------
C Code                                  Assembly Code                                               Description
------------------------------------------------------------------------------------------------------------------------
                                        140001817: 55                   	push   rbp                                                         


Function: _setargv
----------------------------------------
C Code                                  Assembly Code                                               Description
------------------------------------------------------------------------------------------------------------------------
                                        140001840: 55                   	push   rbp                                                         


Function: __dyn_tls_init
----------------------------------------
C Code                                  Assembly Code                                               Description
------------------------------------------------------------------------------------------------------------------------
                                        140001850: 55                   	push   rbp                                                         


Function: __tlregdtor
----------------------------------------
C Code                                  Assembly Code                                               Description
------------------------------------------------------------------------------------------------------------------------
                                        1400018f3: 55                   	push   rbp                                                         


Function: __dyn_tls_dtor
----------------------------------------
C Code                                  Assembly Code                                               Description
------------------------------------------------------------------------------------------------------------------------
                                        140001910: 55                   	push   rbp                                                         


Function: _matherr
----------------------------------------
C Code                                  Assembly Code                                               Description
------------------------------------------------------------------------------------------------------------------------
                                        140001960: 55                   	push   rbp                                                         


Function: _fpreset
----------------------------------------
C Code                                  Assembly Code                                               Description
------------------------------------------------------------------------------------------------------------------------
                                        140001a80: 55                   	push   rbp                                                         


Function: __report_error
----------------------------------------
C Code                                  Assembly Code                                               Description
------------------------------------------------------------------------------------------------------------------------
                                        140001a90: 55                   	push   rbp                                                         


Function: mark_section_writable
----------------------------------------
C Code                                  Assembly Code                                               Description
------------------------------------------------------------------------------------------------------------------------
                                        140001b00: 55                   	push   rbp                                                         


Function: restore_modified_sections
----------------------------------------
C Code                                  Assembly Code                                               Description
------------------------------------------------------------------------------------------------------------------------
                                        140001ddf: 55                   	push   rbp                                                         


Function: __write_memory
----------------------------------------
C Code                                  Assembly Code                                               Description
------------------------------------------------------------------------------------------------------------------------
                                        140001eb7: 55                   	push   rbp                                                         


Function: do_pseudo_reloc
----------------------------------------
C Code                                  Assembly Code                                               Description
------------------------------------------------------------------------------------------------------------------------
                                        140001efe: 55                   	push   rbp                                                         


Function: _pei386_runtime_relocator
----------------------------------------
C Code                                  Assembly Code                                               Description
------------------------------------------------------------------------------------------------------------------------
                                        140002288: 55                   	push   rbp                                                         


Function: __mingw_raise_matherr
----------------------------------------
C Code                                  Assembly Code                                               Description
------------------------------------------------------------------------------------------------------------------------
                                        140002330: 55                   	push   rbp                                                         


Function: __mingw_setusermatherr
----------------------------------------
C Code                                  Assembly Code                                               Description
------------------------------------------------------------------------------------------------------------------------
                                        14000239a: 55                   	push   rbp                                                         


Function: _gnu_exception_handler
----------------------------------------
C Code                                  Assembly Code                                               Description
------------------------------------------------------------------------------------------------------------------------
                                        1400023d0: 55                   	push   rbp                                                         


Function: ___w64_mingwthr_add_key_dtor
----------------------------------------
C Code                                  Assembly Code                                               Description
------------------------------------------------------------------------------------------------------------------------
                                        140002600: 55                   	push   rbp                                                         


Function: ___w64_mingwthr_remove_key_dtor
----------------------------------------
C Code                                  Assembly Code                                               Description
------------------------------------------------------------------------------------------------------------------------
                                        1400026a1: 55                   	push   rbp                                                         


Function: __mingwthr_run_key_dtors
----------------------------------------
C Code                                  Assembly Code                                               Description
------------------------------------------------------------------------------------------------------------------------
                                        140002762: 55                   	push   rbp                                                         


Function: __mingw_TLScallback
----------------------------------------
C Code                                  Assembly Code                                               Description
------------------------------------------------------------------------------------------------------------------------
                                        140002801: 55                   	push   rbp                                                         


Function: _ValidateImageBase
----------------------------------------
C Code                                  Assembly Code                                               Description
------------------------------------------------------------------------------------------------------------------------
                                        140002900: 55                   	push   rbp                                                         


Function: _FindPESection
----------------------------------------
C Code                                  Assembly Code                                               Description
------------------------------------------------------------------------------------------------------------------------
                                        14000297c: 55                   	push   rbp                                                         


Function: _FindPESectionByName
----------------------------------------
C Code                                  Assembly Code                                               Description
------------------------------------------------------------------------------------------------------------------------
                                        140002a15: 55                   	push   rbp                                                         


Function: __mingw_GetSectionForAddress
----------------------------------------
C Code                                  Assembly Code                                               Description
------------------------------------------------------------------------------------------------------------------------
                                        140002adb: 55                   	push   rbp                                                         


Function: __mingw_GetSectionCount
----------------------------------------
C Code                                  Assembly Code                                               Description
------------------------------------------------------------------------------------------------------------------------
                                        140002b2b: 55                   	push   rbp                                                         


Function: _FindPESectionExec
----------------------------------------
C Code                                  Assembly Code                                               Description
------------------------------------------------------------------------------------------------------------------------
                                        140002b7b: 55                   	push   rbp                                                         


Function: _GetPEImageBase
----------------------------------------
C Code                                  Assembly Code                                               Description
------------------------------------------------------------------------------------------------------------------------
                                        140002c27: 55                   	push   rbp                                                         


Function: _IsNonwritableInCurrentImage
----------------------------------------
C Code                                  Assembly Code                                               Description
------------------------------------------------------------------------------------------------------------------------
                                        140002c5b: 55                   	push   rbp                                                         


Function: __mingw_enum_import_library_names
----------------------------------------
C Code                                  Assembly Code                                               Description
------------------------------------------------------------------------------------------------------------------------
                                        140002ccc: 55                   	push   rbp                                                         


Function: ___chkstk_ms
----------------------------------------
C Code                                  Assembly Code                                               Description
------------------------------------------------------------------------------------------------------------------------
                                        140002db0: 51                   	push   rcx                                                         


Function: vfprintf
----------------------------------------
C Code                                  Assembly Code                                               Description
------------------------------------------------------------------------------------------------------------------------
                                        140002df0: 55                   	push   rbp                                                         


Function: printf
----------------------------------------
C Code                                  Assembly Code                                               Description
------------------------------------------------------------------------------------------------------------------------
                                        140002e40: 55                   	push   rbp                                                         


Function: fprintf
----------------------------------------
C Code                                  Assembly Code                                               Description
------------------------------------------------------------------------------------------------------------------------
                                        140002ea0: 55                   	push   rbp                                                         


Function: __getmainargs
----------------------------------------
C Code                                  Assembly Code                                               Description
------------------------------------------------------------------------------------------------------------------------
                                        140002f00: 55                   	push   rbp                                                         


Function: __wgetmainargs
----------------------------------------
C Code                                  Assembly Code                                               Description
------------------------------------------------------------------------------------------------------------------------
                                        140002f80: 55                   	push   rbp                                                         


Function: _onexit
----------------------------------------
C Code                                  Assembly Code                                               Description
------------------------------------------------------------------------------------------------------------------------
                                        140003000: 55                   	push   rbp                                                         


Function: at_quick_exit
----------------------------------------
C Code                                  Assembly Code                                               Description
------------------------------------------------------------------------------------------------------------------------
                                        14000302d: 55                   	push   rbp                                                         


Function: _amsg_exit
----------------------------------------
C Code                                  Assembly Code                                               Description
------------------------------------------------------------------------------------------------------------------------
                                        140003060: 55                   	push   rbp                                                         


Function: _get_output_format
----------------------------------------
C Code                                  Assembly Code                                               Description
------------------------------------------------------------------------------------------------------------------------
                                        140003098: 55                   	push   rbp                                                         


Function: _tzset
----------------------------------------
C Code                                  Assembly Code                                               Description
------------------------------------------------------------------------------------------------------------------------
                                        1400030a3: 55                   	push   rbp                                                         


Function: tzset
----------------------------------------
C Code                                  Assembly Code                                               Description
------------------------------------------------------------------------------------------------------------------------
                                        1400030e2: 55                   	push   rbp                                                         


Function: __ms_fwprintf
----------------------------------------
C Code                                  Assembly Code                                               Description
------------------------------------------------------------------------------------------------------------------------
                                        1400030f6: 55                   	push   rbp                                                         


Function: __daylight
----------------------------------------
C Code                                  Assembly Code                                               Description
------------------------------------------------------------------------------------------------------------------------
                                        140003150: ff 25 2a 73 00 00    	jmp    QWORD PTR [rip+0x732a]        # 14000a480 <__imp___daylight>                                        


Function: __timezone
----------------------------------------
C Code                                  Assembly Code                                               Description
------------------------------------------------------------------------------------------------------------------------
                                        140003158: ff 25 2a 73 00 00    	jmp    QWORD PTR [rip+0x732a]        # 14000a488 <__imp___timezone>                                        


Function: __tzname
----------------------------------------
C Code                                  Assembly Code                                               Description
------------------------------------------------------------------------------------------------------------------------
                                        140003160: ff 25 2a 73 00 00    	jmp    QWORD PTR [rip+0x732a]        # 14000a490 <__imp___tzname>                                        


Function: strlen
----------------------------------------
C Code                                  Assembly Code                                               Description
------------------------------------------------------------------------------------------------------------------------
                                        140003170: ff 25 f2 72 00 00    	jmp    QWORD PTR [rip+0x72f2]        # 14000a468 <__imp_strlen>                                        


Function: strncmp
----------------------------------------
C Code                                  Assembly Code                                               Description
------------------------------------------------------------------------------------------------------------------------
                                        140003178: ff 25 f2 72 00 00    	jmp    QWORD PTR [rip+0x72f2]        # 14000a470 <__imp_strncmp>                                        


Function: __acrt_iob_func
----------------------------------------
C Code                                  Assembly Code                                               Description
------------------------------------------------------------------------------------------------------------------------
                                        140003180: ff 25 a2 72 00 00    	jmp    QWORD PTR [rip+0x72a2]        # 14000a428 <__imp___acrt_iob_func>                                        


Function: __p__commode
----------------------------------------
C Code                                  Assembly Code                                               Description
------------------------------------------------------------------------------------------------------------------------
                                        140003188: ff 25 a2 72 00 00    	jmp    QWORD PTR [rip+0x72a2]        # 14000a430 <__imp___p__commode>                                        


Function: __p__fmode
----------------------------------------
C Code                                  Assembly Code                                               Description
------------------------------------------------------------------------------------------------------------------------
                                        140003190: ff 25 a2 72 00 00    	jmp    QWORD PTR [rip+0x72a2]        # 14000a438 <__imp___p__fmode>                                        


Function: __stdio_common_vfprintf
----------------------------------------
C Code                                  Assembly Code                                               Description
------------------------------------------------------------------------------------------------------------------------
                                        140003198: ff 25 a2 72 00 00    	jmp    QWORD PTR [rip+0x72a2]        # 14000a440 <__imp___stdio_common_vfprintf>                                        


Function: __stdio_common_vfwprintf
----------------------------------------
C Code                                  Assembly Code                                               Description
------------------------------------------------------------------------------------------------------------------------
                                        1400031a0: ff 25 a2 72 00 00    	jmp    QWORD PTR [rip+0x72a2]        # 14000a448 <__imp___stdio_common_vfwprintf>                                        


Function: fwrite
----------------------------------------
C Code                                  Assembly Code                                               Description
------------------------------------------------------------------------------------------------------------------------
                                        1400031a8: ff 25 a2 72 00 00    	jmp    QWORD PTR [rip+0x72a2]        # 14000a450 <__imp_fwrite>                                        


Function: puts
----------------------------------------
C Code                                  Assembly Code                                               Description
------------------------------------------------------------------------------------------------------------------------
                                        1400031b0: ff 25 a2 72 00 00    	jmp    QWORD PTR [rip+0x72a2]        # 14000a458 <__imp_puts>                                        


Function: __p___argc
----------------------------------------
C Code                                  Assembly Code                                               Description
------------------------------------------------------------------------------------------------------------------------
                                        1400031c0: ff 25 d2 71 00 00    	jmp    QWORD PTR [rip+0x71d2]        # 14000a398 <__imp___p___argc>                                        


Function: __p___argv
----------------------------------------
C Code                                  Assembly Code                                               Description
------------------------------------------------------------------------------------------------------------------------
                                        1400031c8: ff 25 d2 71 00 00    	jmp    QWORD PTR [rip+0x71d2]        # 14000a3a0 <__imp___p___argv>                                        


Function: __p___wargv
----------------------------------------
C Code                                  Assembly Code                                               Description
------------------------------------------------------------------------------------------------------------------------
                                        1400031d0: ff 25 d2 71 00 00    	jmp    QWORD PTR [rip+0x71d2]        # 14000a3a8 <__imp___p___wargv>                                        


Function: _cexit
----------------------------------------
C Code                                  Assembly Code                                               Description
------------------------------------------------------------------------------------------------------------------------
                                        1400031d8: ff 25 d2 71 00 00    	jmp    QWORD PTR [rip+0x71d2]        # 14000a3b0 <__imp__cexit>                                        


Function: _configure_narrow_argv
----------------------------------------
C Code                                  Assembly Code                                               Description
------------------------------------------------------------------------------------------------------------------------
                                        1400031e0: ff 25 d2 71 00 00    	jmp    QWORD PTR [rip+0x71d2]        # 14000a3b8 <__imp__configure_narrow_argv>                                        


Function: _configure_wide_argv
----------------------------------------
C Code                                  Assembly Code                                               Description
------------------------------------------------------------------------------------------------------------------------
                                        1400031e8: ff 25 d2 71 00 00    	jmp    QWORD PTR [rip+0x71d2]        # 14000a3c0 <__imp__configure_wide_argv>                                        


Function: _crt_at_quick_exit
----------------------------------------
C Code                                  Assembly Code                                               Description
------------------------------------------------------------------------------------------------------------------------
                                        1400031f0: ff 25 d2 71 00 00    	jmp    QWORD PTR [rip+0x71d2]        # 14000a3c8 <__imp__crt_at_quick_exit>                                        


Function: _crt_atexit
----------------------------------------
C Code                                  Assembly Code                                               Description
------------------------------------------------------------------------------------------------------------------------
                                        1400031f8: ff 25 d2 71 00 00    	jmp    QWORD PTR [rip+0x71d2]        # 14000a3d0 <__imp__crt_atexit>                                        


Function: _exit
----------------------------------------
C Code                                  Assembly Code                                               Description
------------------------------------------------------------------------------------------------------------------------
                                        140003200: ff 25 d2 71 00 00    	jmp    QWORD PTR [rip+0x71d2]        # 14000a3d8 <__imp__exit>                                        


Function: _initialize_narrow_environment
----------------------------------------
C Code                                  Assembly Code                                               Description
------------------------------------------------------------------------------------------------------------------------
                                        140003208: ff 25 d2 71 00 00    	jmp    QWORD PTR [rip+0x71d2]        # 14000a3e0 <__imp__initialize_narrow_environment>                                        


Function: _initialize_wide_environment
----------------------------------------
C Code                                  Assembly Code                                               Description
------------------------------------------------------------------------------------------------------------------------
                                        140003210: ff 25 d2 71 00 00    	jmp    QWORD PTR [rip+0x71d2]        # 14000a3e8 <__imp__initialize_wide_environment>                                        


Function: _initterm
----------------------------------------
C Code                                  Assembly Code                                               Description
------------------------------------------------------------------------------------------------------------------------
                                        140003218: ff 25 d2 71 00 00    	jmp    QWORD PTR [rip+0x71d2]        # 14000a3f0 <__imp__initterm>                                        


Function: __set_app_type
----------------------------------------
C Code                                  Assembly Code                                               Description
------------------------------------------------------------------------------------------------------------------------
                                        140003220: ff 25 d2 71 00 00    	jmp    QWORD PTR [rip+0x71d2]        # 14000a3f8 <__imp___set_app_type>                                        


Function: _set_invalid_parameter_handler
----------------------------------------
C Code                                  Assembly Code                                               Description
------------------------------------------------------------------------------------------------------------------------
                                        140003228: ff 25 d2 71 00 00    	jmp    QWORD PTR [rip+0x71d2]        # 14000a400 <__imp__set_invalid_parameter_handler>                                        


Function: abort
----------------------------------------
C Code                                  Assembly Code                                               Description
------------------------------------------------------------------------------------------------------------------------
                                        140003230: ff 25 d2 71 00 00    	jmp    QWORD PTR [rip+0x71d2]        # 14000a408 <__imp_abort>                                        


Function: exit
----------------------------------------
C Code                                  Assembly Code                                               Description
------------------------------------------------------------------------------------------------------------------------
                                        140003238: ff 25 d2 71 00 00    	jmp    QWORD PTR [rip+0x71d2]        # 14000a410 <__imp_exit>                                        


Function: signal
----------------------------------------
C Code                                  Assembly Code                                               Description
------------------------------------------------------------------------------------------------------------------------
                                        140003240: ff 25 d2 71 00 00    	jmp    QWORD PTR [rip+0x71d2]        # 14000a418 <__imp_signal>                                        


Function: __C_specific_handler
----------------------------------------
C Code                                  Assembly Code                                               Description
------------------------------------------------------------------------------------------------------------------------
                                        140003250: ff 25 2a 71 00 00    	jmp    QWORD PTR [rip+0x712a]        # 14000a380 <__imp___C_specific_handler>                                        


Function: memcpy
----------------------------------------
C Code                                  Assembly Code                                               Description
------------------------------------------------------------------------------------------------------------------------
                                        140003258: ff 25 2a 71 00 00    	jmp    QWORD PTR [rip+0x712a]        # 14000a388 <__imp_memcpy>                                        


Function: __setusermatherr
----------------------------------------
C Code                                  Assembly Code                                               Description
------------------------------------------------------------------------------------------------------------------------
                                        140003260: ff 25 0a 71 00 00    	jmp    QWORD PTR [rip+0x710a]        # 14000a370 <__imp___setusermatherr>                                        


Function: _set_new_mode
----------------------------------------
C Code                                  Assembly Code                                               Description
------------------------------------------------------------------------------------------------------------------------
                                        140003270: ff 25 d2 70 00 00    	jmp    QWORD PTR [rip+0x70d2]        # 14000a348 <__imp__set_new_mode>                                        


Function: calloc
----------------------------------------
C Code                                  Assembly Code                                               Description
------------------------------------------------------------------------------------------------------------------------
                                        140003278: ff 25 d2 70 00 00    	jmp    QWORD PTR [rip+0x70d2]        # 14000a350 <__imp_calloc>                                        


Function: free
----------------------------------------
C Code                                  Assembly Code                                               Description
------------------------------------------------------------------------------------------------------------------------
                                        140003280: ff 25 d2 70 00 00    	jmp    QWORD PTR [rip+0x70d2]        # 14000a358 <__imp_free>                                        


Function: malloc
----------------------------------------
C Code                                  Assembly Code                                               Description
------------------------------------------------------------------------------------------------------------------------
                                        140003288: ff 25 d2 70 00 00    	jmp    QWORD PTR [rip+0x70d2]        # 14000a360 <__imp_malloc>                                        


Function: __p__environ
----------------------------------------
C Code                                  Assembly Code                                               Description
------------------------------------------------------------------------------------------------------------------------
                                        140003290: ff 25 9a 70 00 00    	jmp    QWORD PTR [rip+0x709a]        # 14000a330 <__imp___p__environ>                                        


Function: __p__wenviron
----------------------------------------
C Code                                  Assembly Code                                               Description
------------------------------------------------------------------------------------------------------------------------
                                        140003298: ff 25 9a 70 00 00    	jmp    QWORD PTR [rip+0x709a]        # 14000a338 <__imp___p__wenviron>                                        


Function: VirtualQuery
----------------------------------------
C Code                                  Assembly Code                                               Description
------------------------------------------------------------------------------------------------------------------------
                                        1400032a0: ff 25 7a 70 00 00    	jmp    QWORD PTR [rip+0x707a]        # 14000a320 <__imp_VirtualQuery>                                        


Function: VirtualProtect
----------------------------------------
C Code                                  Assembly Code                                               Description
------------------------------------------------------------------------------------------------------------------------
                                        1400032a8: ff 25 6a 70 00 00    	jmp    QWORD PTR [rip+0x706a]        # 14000a318 <__imp_VirtualProtect>                                        


Function: TlsGetValue
----------------------------------------
C Code                                  Assembly Code                                               Description
------------------------------------------------------------------------------------------------------------------------
                                        1400032b0: ff 25 5a 70 00 00    	jmp    QWORD PTR [rip+0x705a]        # 14000a310 <__imp_TlsGetValue>                                        


Function: Sleep
----------------------------------------
C Code                                  Assembly Code                                               Description
------------------------------------------------------------------------------------------------------------------------
                                        1400032b8: ff 25 4a 70 00 00    	jmp    QWORD PTR [rip+0x704a]        # 14000a308 <__imp_Sleep>                                        


Function: SetUnhandledExceptionFilter
----------------------------------------
C Code                                  Assembly Code                                               Description
------------------------------------------------------------------------------------------------------------------------
                                        1400032c0: ff 25 3a 70 00 00    	jmp    QWORD PTR [rip+0x703a]        # 14000a300 <__imp_SetUnhandledExceptionFilter>                                        


Function: LoadLibraryA
----------------------------------------
C Code                                  Assembly Code                                               Description
------------------------------------------------------------------------------------------------------------------------
                                        1400032c8: ff 25 2a 70 00 00    	jmp    QWORD PTR [rip+0x702a]        # 14000a2f8 <__imp_LoadLibraryA>                                        


Function: LeaveCriticalSection
----------------------------------------
C Code                                  Assembly Code                                               Description
------------------------------------------------------------------------------------------------------------------------
                                        1400032d0: ff 25 1a 70 00 00    	jmp    QWORD PTR [rip+0x701a]        # 14000a2f0 <__imp_LeaveCriticalSection>                                        


Function: InitializeCriticalSection
----------------------------------------
C Code                                  Assembly Code                                               Description
------------------------------------------------------------------------------------------------------------------------
                                        1400032d8: ff 25 0a 70 00 00    	jmp    QWORD PTR [rip+0x700a]        # 14000a2e8 <__imp_InitializeCriticalSection>                                        


Function: GetProcAddress
----------------------------------------
C Code                                  Assembly Code                                               Description
------------------------------------------------------------------------------------------------------------------------
                                        1400032e0: ff 25 fa 6f 00 00    	jmp    QWORD PTR [rip+0x6ffa]        # 14000a2e0 <__imp_GetProcAddress>                                        


Function: GetModuleHandleA
----------------------------------------
C Code                                  Assembly Code                                               Description
------------------------------------------------------------------------------------------------------------------------
                                        1400032e8: ff 25 ea 6f 00 00    	jmp    QWORD PTR [rip+0x6fea]        # 14000a2d8 <__imp_GetModuleHandleA>                                        


Function: GetLastError
----------------------------------------
C Code                                  Assembly Code                                               Description
------------------------------------------------------------------------------------------------------------------------
                                        1400032f0: ff 25 da 6f 00 00    	jmp    QWORD PTR [rip+0x6fda]        # 14000a2d0 <__imp_GetLastError>                                        


Function: FreeLibrary
----------------------------------------
C Code                                  Assembly Code                                               Description
------------------------------------------------------------------------------------------------------------------------
                                        1400032f8: ff 25 ca 6f 00 00    	jmp    QWORD PTR [rip+0x6fca]        # 14000a2c8 <__imp_FreeLibrary>                                        


Function: EnterCriticalSection
----------------------------------------
C Code                                  Assembly Code                                               Description
------------------------------------------------------------------------------------------------------------------------
                                        140003300: ff 25 ba 6f 00 00    	jmp    QWORD PTR [rip+0x6fba]        # 14000a2c0 <__imp_EnterCriticalSection>                                        


Function: DeleteCriticalSection
----------------------------------------
C Code                                  Assembly Code                                               Description
------------------------------------------------------------------------------------------------------------------------
                                        140003308: ff 25 aa 6f 00 00    	jmp    QWORD PTR [rip+0x6faa]        # 14000a2b8 <__IAT_start__>                                        


Function: register_frame_ctor
----------------------------------------
C Code                                  Assembly Code                                               Description
------------------------------------------------------------------------------------------------------------------------
                                        140003310: e9 cb e2 ff ff       	jmp    1400015e0 <__gcc_register_frame>                                        


Function: __CTOR_LIST__
----------------------------------------
C Code                                  Assembly Code                                               Description
------------------------------------------------------------------------------------------------------------------------
                                        140003320: ff                   	(bad)                                                              


